target datalayout = "e-m:e-p270:32:32-p271:32:32-p272:64:64-i64:64-i128:128-f80:128-n8:16:32:64-S128"
target triple = "x86_64-pc-linux-gnu"

%struct.VP8BitWriter = type { i32, i32, i32, i32, ptr, i64, i64, i32 }

; Function Attrs: nounwind uwtable
define internal i32 @BitWriterResize(ptr noundef %0, i64 noundef %1) #0 {
  %3 = alloca i32, align 4
  %4 = alloca ptr, align 8
  %5 = alloca i64, align 8
  %6 = alloca ptr, align 8
  %7 = alloca i64, align 8
  %8 = alloca i64, align 8
  %9 = alloca i64, align 8
  %10 = alloca i32, align 4
  store ptr %0, ptr %4, align 8, !tbaa !3
  store i64 %1, ptr %5, align 8, !tbaa !18
  call void @llvm.lifetime.start.p0(i64 8, ptr %6) #6
  call void @llvm.lifetime.start.p0(i64 8, ptr %7) #6
  call void @llvm.lifetime.start.p0(i64 8, ptr %8) #6
  %11 = load ptr, ptr %4, align 8, !tbaa !3
  %12 = getelementptr inbounds nuw %struct.VP8BitWriter, ptr %11, i32 0, i32 5
  %13 = load i64, ptr %12, align 8, !tbaa !17
  %14 = load i64, ptr %5, align 8, !tbaa !18
  %15 = add i64 %13, %14
  store i64 %15, ptr %8, align 8, !tbaa !18
  call void @llvm.lifetime.start.p0(i64 8, ptr %9) #6
  %16 = load i64, ptr %8, align 8, !tbaa !18
  store i64 %16, ptr %9, align 8, !tbaa !18
  %17 = load i64, ptr %8, align 8, !tbaa !18
  %18 = load i64, ptr %9, align 8, !tbaa !18
  %19 = icmp ne i64 %17, %18
  br i1 %19, label %20, label %23

20:                                               ; preds = %2
  %21 = load ptr, ptr %4, align 8, !tbaa !3
  %22 = getelementptr inbounds nuw %struct.VP8BitWriter, ptr %21, i32 0, i32 7
  store i32 1, ptr %22, align 8, !tbaa !25
  store i32 0, ptr %3, align 4
  store i32 1, ptr %10, align 4
  br label %75

23:                                               ; preds = %2
  %24 = load i64, ptr %9, align 8, !tbaa !18
  %25 = load ptr, ptr %4, align 8, !tbaa !3
  %26 = getelementptr inbounds nuw %struct.VP8BitWriter, ptr %25, i32 0, i32 6
  %27 = load i64, ptr %26, align 8, !tbaa !24
  %28 = icmp ule i64 %24, %27
  br i1 %28, label %29, label %30

29:                                               ; preds = %23
  store i32 1, ptr %3, align 4
  store i32 1, ptr %10, align 4
  br label %75

30:                                               ; preds = %23
  %31 = load ptr, ptr %4, align 8, !tbaa !3
  %32 = getelementptr inbounds nuw %struct.VP8BitWriter, ptr %31, i32 0, i32 6
  %33 = load i64, ptr %32, align 8, !tbaa !24
  %34 = mul i64 2, %33
  store i64 %34, ptr %7, align 8, !tbaa !18
  %35 = load i64, ptr %7, align 8, !tbaa !18
  %36 = load i64, ptr %9, align 8, !tbaa !18
  %37 = icmp ult i64 %35, %36
  br i1 %37, label %38, label %40

38:                                               ; preds = %30
  %39 = load i64, ptr %9, align 8, !tbaa !18
  store i64 %39, ptr %7, align 8, !tbaa !18
  br label %40

40:                                               ; preds = %38, %30
  %41 = load i64, ptr %7, align 8, !tbaa !18
  %42 = icmp ult i64 %41, 1024
  br i1 %42, label %43, label %44

43:                                               ; preds = %40
  store i64 1024, ptr %7, align 8, !tbaa !18
  br label %44

44:                                               ; preds = %43, %40
  %45 = load i64, ptr %7, align 8, !tbaa !18
  %46 = call ptr @WebPSafeMalloc(i64 noundef 1, i64 noundef %45)
  store ptr %46, ptr %6, align 8, !tbaa !26
  %47 = load ptr, ptr %6, align 8, !tbaa !26
  %48 = icmp eq ptr %47, null
  br i1 %48, label %49, label %52

49:                                               ; preds = %44
  %50 = load ptr, ptr %4, align 8, !tbaa !3
  %51 = getelementptr inbounds nuw %struct.VP8BitWriter, ptr %50, i32 0, i32 7
  store i32 1, ptr %51, align 8, !tbaa !25
  store i32 0, ptr %3, align 4
  store i32 1, ptr %10, align 4
  br label %75

52:                                               ; preds = %44
  %53 = load ptr, ptr %4, align 8, !tbaa !3
  %54 = getelementptr inbounds nuw %struct.VP8BitWriter, ptr %53, i32 0, i32 5
  %55 = load i64, ptr %54, align 8, !tbaa !17
  %56 = icmp ugt i64 %55, 0
  br i1 %56, label %57, label %65

57:                                               ; preds = %52
  %58 = load ptr, ptr %6, align 8, !tbaa !26
  %59 = load ptr, ptr %4, align 8, !tbaa !3
  %60 = getelementptr inbounds nuw %struct.VP8BitWriter, ptr %59, i32 0, i32 4
  %61 = load ptr, ptr %60, align 8, !tbaa !20
  %62 = load ptr, ptr %4, align 8, !tbaa !3
  %63 = getelementptr inbounds nuw %struct.VP8BitWriter, ptr %62, i32 0, i32 5
  %64 = load i64, ptr %63, align 8, !tbaa !17
  call void @llvm.memcpy.p0.p0.i64(ptr align 1 %58, ptr align 1 %61, i64 %64, i1 false)
  br label %65

65:                                               ; preds = %57, %52
  %66 = load ptr, ptr %4, align 8, !tbaa !3
  %67 = getelementptr inbounds nuw %struct.VP8BitWriter, ptr %66, i32 0, i32 4
  %68 = load ptr, ptr %67, align 8, !tbaa !20
  call void @WebPSafeFree(ptr noundef %68)
  %69 = load ptr, ptr %6, align 8, !tbaa !26
  %70 = load ptr, ptr %4, align 8, !tbaa !3
  %71 = getelementptr inbounds nuw %struct.VP8BitWriter, ptr %70, i32 0, i32 4
  store ptr %69, ptr %71, align 8, !tbaa !20
  %72 = load i64, ptr %7, align 8, !tbaa !18
  %73 = load ptr, ptr %4, align 8, !tbaa !3
  %74 = getelementptr inbounds nuw %struct.VP8BitWriter, ptr %73, i32 0, i32 6
  store i64 %72, ptr %74, align 8, !tbaa !24
  store i32 1, ptr %3, align 4
  store i32 1, ptr %10, align 4
  br label %75

75:                                               ; preds = %65, %49, %29, %20
  call void @llvm.lifetime.end.p0(i64 8, ptr %9) #6
  call void @llvm.lifetime.end.p0(i64 8, ptr %8) #6
  call void @llvm.lifetime.end.p0(i64 8, ptr %7) #6
  call void @llvm.lifetime.end.p0(i64 8, ptr %6) #6
  %76 = load i32, ptr %3, align 4
  ret i32 %76
}

; Function Attrs: nounwind uwtable
define hidden i32 @VP8BitWriterInit(ptr noundef %0, i64 noundef %1) #0 {
  %3 = alloca ptr, align 8
  %4 = alloca i64, align 8
  store ptr %0, ptr %3, align 8, !tbaa !3
  store i64 %1, ptr %4, align 8, !tbaa !18
  %5 = load ptr, ptr %3, align 8, !tbaa !3
  %6 = getelementptr inbounds nuw %struct.VP8BitWriter, ptr %5, i32 0, i32 0
  store i32 254, ptr %6, align 8, !tbaa !10
  %7 = load ptr, ptr %3, align 8, !tbaa !3
  %8 = getelementptr inbounds nuw %struct.VP8BitWriter, ptr %7, i32 0, i32 1
  store i32 0, ptr %8, align 4, !tbaa !14
  %9 = load ptr, ptr %3, align 8, !tbaa !3
  %10 = getelementptr inbounds nuw %struct.VP8BitWriter, ptr %9, i32 0, i32 2
  store i32 0, ptr %10, align 8, !tbaa !19
  %11 = load ptr, ptr %3, align 8, !tbaa !3
  %12 = getelementptr inbounds nuw %struct.VP8BitWriter, ptr %11, i32 0, i32 3
  store i32 -8, ptr %12, align 4, !tbaa !16
  %13 = load ptr, ptr %3, align 8, !tbaa !3
  %14 = getelementptr inbounds nuw %struct.VP8BitWriter, ptr %13, i32 0, i32 5
  store i64 0, ptr %14, align 8, !tbaa !17
  %15 = load ptr, ptr %3, align 8, !tbaa !3
  %16 = getelementptr inbounds nuw %struct.VP8BitWriter, ptr %15, i32 0, i32 6
  store i64 0, ptr %16, align 8, !tbaa !24
  %17 = load ptr, ptr %3, align 8, !tbaa !3
  %18 = getelementptr inbounds nuw %struct.VP8BitWriter, ptr %17, i32 0, i32 7
  store i32 0, ptr %18, align 8, !tbaa !25
  %19 = load ptr, ptr %3, align 8, !tbaa !3
  %20 = getelementptr inbounds nuw %struct.VP8BitWriter, ptr %19, i32 0, i32 4
  store ptr null, ptr %20, align 8, !tbaa !20
  %21 = load i64, ptr %4, align 8, !tbaa !18
  %22 = icmp ugt i64 %21, 0
  br i1 %22, label %23, label %27

23:                                               ; preds = %2
  %24 = load ptr, ptr %3, align 8, !tbaa !3
  %25 = load i64, ptr %4, align 8, !tbaa !18
  %26 = call i32 @BitWriterResize(ptr noundef %24, i64 noundef %25)
  br label %28

27:                                               ; preds = %2
  br label %28

28:                                               ; preds = %27, %23
  %29 = phi i32 [ %26, %23 ], [ 1, %27 ]
  ret i32 %29
}